; Function Attrs: nounwind uwtable
define ptr @l_Std_Time_Second_instReprOrdinal___rarg(ptr noundef %0, ptr noundef %1) local_unnamed_addr #1 {
  %3 = load ptr, ptr @l_Std_Time_Second_instReprOrdinal___rarg___closed__1, align 8, !tbaa !10
  %4 = ptrtoint ptr %0 to i64
  %5 = and i64 %4, 1
  %.not.i.i = icmp eq i64 %5, 0
  br i1 %.not.i.i, label %lean_int_dec_lt.exit, label %6, !prof !12

6:                                                ; preds = %2
  %7 = ptrtoint ptr %3 to i64
  %8 = and i64 %7, 1
  %.not7.i.i = icmp eq i64 %8, 0
  br i1 %.not7.i.i, label %lean_int_dec_lt.exit, label %9, !prof !12

9:                                                ; preds = %6
  %10 = lshr i64 %4, 1
  %11 = trunc i64 %10 to i32
  %12 = lshr i64 %7, 1
  %13 = trunc i64 %12 to i32
  %14 = icmp slt i32 %11, %13
  br i1 %14, label %23, label %16

lean_int_dec_lt.exit:                             ; preds = %2, %6
  %15 = tail call zeroext i1 @lean_int_big_lt(ptr noundef %0, ptr noundef %3) #6
  br i1 %15, label %23, label %16

16:                                               ; preds = %9, %lean_int_dec_lt.exit
  %17 = tail call ptr @l_Int_repr(ptr noundef %0) #6
  tail call void @lean_inc_heartbeat() #6
  %18 = tail call noalias ptr @mi_malloc_small(i64 noundef 16) #6
  %19 = icmp eq ptr %18, null
  br i1 %19, label %20, label %lean_alloc_ctor.exit

20:                                               ; preds = %16
  tail call void @lean_internal_panic_out_of_memory() #7
  unreachable

lean_alloc_ctor.exit:                             ; preds = %16
  %21 = getelementptr inbounds nuw i8, ptr %18, i64 4
  store i32 1, ptr %18, align 4, !tbaa !4
  store i32 50397200, ptr %21, align 4
  %22 = getelementptr inbounds nuw i8, ptr %18, i64 8
  store ptr %17, ptr %22, align 8, !tbaa !10
  br label %31

23:                                               ; preds = %9, %lean_int_dec_lt.exit
  %24 = tail call ptr @l_Int_repr(ptr noundef %0) #6
  tail call void @lean_inc_heartbeat() #6
  %25 = tail call noalias ptr @mi_malloc_small(i64 noundef 16) #6
  %26 = icmp eq ptr %25, null
  br i1 %26, label %27, label %lean_alloc_ctor.exit13

27:                                               ; preds = %23
  tail call void @lean_internal_panic_out_of_memory() #7
  unreachable

lean_alloc_ctor.exit13:                           ; preds = %23
  %28 = getelementptr inbounds nuw i8, ptr %25, i64 4
  store i32 1, ptr %25, align 4, !tbaa !4
  store i32 50397200, ptr %28, align 4
  %29 = getelementptr inbounds nuw i8, ptr %25, i64 8
  store ptr %24, ptr %29, align 8, !tbaa !10
  %30 = tail call ptr @l_Repr_addAppParen(ptr noundef nonnull %25, ptr noundef %1) #6
  br label %31

31:                                               ; preds = %lean_alloc_ctor.exit13, %lean_alloc_ctor.exit
  %.0 = phi ptr [ %18, %lean_alloc_ctor.exit ], [ %30, %lean_alloc_ctor.exit13 ]
  ret ptr %.0
}